; Function Attrs: mustprogress nofree norecurse nosync nounwind willreturn memory(argmem: write) uwtable
define void @_ZN8proxygen20ZstdStreamCompressorC2Eib(ptr nocapture noundef nonnull writeonly align 8 dereferenceable(22) %this, i32 noundef %compressionLevel, i1 noundef zeroext %independentChunks) unnamed_addr #0 align 2 personality ptr @__gxx_personality_v0 {
entry:
  %frombool = zext i1 %independentChunks to i8
  store ptr getelementptr inbounds ({ [6 x ptr] }, ptr @_ZTVN8proxygen20ZstdStreamCompressorE, i64 0, i32 0, i64 2), ptr %this, align 8
  %codec_ = getelementptr inbounds i8, ptr %this, i64 8
  store ptr null, ptr %codec_, align 8
  %compressionLevel_ = getelementptr inbounds i8, ptr %this, i64 16
  store i32 %compressionLevel, ptr %compressionLevel_, align 8
  %independent_ = getelementptr inbounds i8, ptr %this, i64 20
  store i8 %frombool, ptr %independent_, align 4
  %error_ = getelementptr inbounds i8, ptr %this, i64 21
  store i8 0, ptr %error_, align 1
  ret void
}